; Function Attrs: mustprogress nounwind uwtable
define dso_local noundef zeroext i1 @_ZN4llvm8LLParser19parseStringConstantERNSt7__cxx1112basic_stringIcSt11char_traitsIcESaIcEEE(ptr noundef nonnull align 8 dereferenceable(1768) %0, ptr noundef nonnull align 8 dereferenceable(32) %1) local_unnamed_addr #0 align 2 {
  %3 = alloca %"class.llvm::Twine", align 8
  %4 = getelementptr inbounds nuw i8, ptr %0, i64 176
  %5 = getelementptr inbounds i8, ptr %0, i64 232
  %6 = load i32, ptr %5, align 8
  %.not = icmp eq i32 %6, 497
  br i1 %.not, label %13, label %7

7:                                                ; preds = %2
  %8 = getelementptr inbounds nuw i8, ptr %3, i64 32
  %9 = getelementptr inbounds nuw i8, ptr %3, i64 33
  store i8 1, ptr %9, align 1
  store ptr @.str.75, ptr %3, align 8
  store i8 3, ptr %8, align 8
  %10 = getelementptr inbounds i8, ptr %0, i64 224
  %11 = load ptr, ptr %10, align 8
  %12 = call noundef zeroext i1 @_ZNK4llvm7LLLexer5ErrorENS_5SMLocERKNS_5TwineE(ptr noundef nonnull align 8 dereferenceable(161) %4, ptr %11, ptr noundef nonnull align 8 dereferenceable(34) %3) #25
  br label %17

13:                                               ; preds = %2
  %14 = getelementptr inbounds i8, ptr %0, i64 240
  %15 = tail call noundef nonnull align 8 dereferenceable(32) ptr @_ZNSt7__cxx1112basic_stringIcSt11char_traitsIcESaIcEEaSERKS4_(ptr noundef nonnull align 8 dereferenceable(32) %1, ptr noundef nonnull align 8 dereferenceable(32) %14) #25
  %16 = tail call noundef i32 @_ZN4llvm7LLLexer8LexTokenEv(ptr noundef nonnull align 8 dereferenceable(161) %4) #25
  store i32 %16, ptr %5, align 8
  br label %17

17:                                               ; preds = %13, %7
  %.0 = phi i1 [ %12, %7 ], [ false, %13 ]
  ret i1 %.0
}